target datalayout = "e-m:e-p270:32:32-p271:32:32-p272:64:64-i64:64-i128:128-f80:128-n8:16:32:64-S128"
target triple = "x86_64-unknown-linux-gnu"

%"class.sat::literal" = type { i32 }
%"class.sat::aig_cuts" = type { %class.random_gen, %"struct.sat::aig_cuts::config", %class.vector, %class.svector, %class.region, %"class.sat::cut_set", %"class.sat::cut_set", %"class.sat::cut_set", %class.vector.1, %class.svector.2, %class.svector.2, i32, i32, %class.svector.4, i32, %"class.std::function", %"class.std::function", %"class.std::function.6", %"class.std::function.6", %class.svector, [6 x ptr], [6 x i64], [6 x %"class.sat::literal"] }
%class.random_gen = type { i32 }
%"struct.sat::aig_cuts::config" = type <{ i32, i32, i32, i8, [3 x i8] }>
%class.vector = type { ptr }
%class.region = type { ptr, ptr, ptr, ptr, ptr }
%"class.sat::cut_set" = type { i32, ptr, i32, i32, ptr }
%class.vector.1 = type { ptr }
%class.svector.2 = type { %class.vector.3 }
%class.vector.3 = type { ptr }
%class.svector.4 = type { %class.vector.5 }
%class.vector.5 = type { ptr }
%"class.std::function" = type { %"class.std::_Function_base", ptr }
%"class.std::_Function_base" = type { %"union.std::_Any_data", ptr }
%"union.std::_Any_data" = type { %"union.std::_Nocopy_types" }
%"union.std::_Nocopy_types" = type { { i64, i64 } }
%"class.std::function.6" = type { %"class.std::_Function_base", ptr }
%class.svector = type { %class.vector.0 }
%class.vector.0 = type { ptr }
%"class.sat::aig_cuts::to_root" = type { %class.svector }
%"class.sat::cut" = type { i32, i32, [5 x i32], i64, i64 }

; Function Attrs: mustprogress nounwind uwtable
define linkonce_odr hidden noundef nonnull align 4 dereferenceable(4) ptr @_ZNK6vectorIN3sat7literalELb0EjEixEj(ptr noundef nonnull align 8 dereferenceable(8) %this, i32 noundef %idx) #4 comdat align 2 {
entry:
  %this.addr = alloca ptr, align 8
  %idx.addr = alloca i32, align 4
  store ptr %this, ptr %this.addr, align 8
  store i32 %idx, ptr %idx.addr, align 4
  %this1 = load ptr, ptr %this.addr, align 8
  %m_data = getelementptr inbounds %class.vector.0, ptr %this1, i32 0, i32 0
  %0 = load ptr, ptr %m_data, align 8
  %1 = load i32, ptr %idx.addr, align 4
  %idxprom = zext i32 %1 to i64
  %arrayidx = getelementptr inbounds %"class.sat::literal", ptr %0, i64 %idxprom
  ret ptr %arrayidx
}

; Function Attrs: mustprogress nounwind uwtable
define linkonce_odr hidden noundef i32 @_ZNK6vectorIN3sat7literalELb0EjE4sizeEv(ptr noundef nonnull align 8 dereferenceable(8) %this) #4 comdat align 2 {
entry:
  %retval = alloca i32, align 4
  %this.addr = alloca ptr, align 8
  store ptr %this, ptr %this.addr, align 8
  %this1 = load ptr, ptr %this.addr, align 8
  %m_data = getelementptr inbounds %class.vector.0, ptr %this1, i32 0, i32 0
  %0 = load ptr, ptr %m_data, align 8
  %cmp = icmp eq ptr %0, null
  br i1 %cmp, label %if.then, label %if.end

if.then:                                          ; preds = %entry
  store i32 0, ptr %retval, align 4
  br label %return

if.end:                                           ; preds = %entry
  %m_data2 = getelementptr inbounds %class.vector.0, ptr %this1, i32 0, i32 0
  %1 = load ptr, ptr %m_data2, align 8
  %arrayidx = getelementptr inbounds i32, ptr %1, i64 -1
  %2 = load i32, ptr %arrayidx, align 4
  store i32 %2, ptr %retval, align 4
  br label %return

return:                                           ; preds = %if.end, %if.then
  %3 = load i32, ptr %retval, align 4
  ret i32 %3
}

; Function Attrs: mustprogress uwtable
define linkonce_odr hidden void @_ZN3sat8aig_cuts5evictERNS_7cut_setEj(ptr noundef nonnull align 8 dereferenceable(480) %this, ptr noundef nonnull align 8 dereferenceable(32) %cs, i32 noundef %idx) #5 comdat align 2 {
entry:
  %this.addr = alloca ptr, align 8
  %cs.addr = alloca ptr, align 8
  %idx.addr = alloca i32, align 4
  store ptr %this, ptr %this.addr, align 8
  store ptr %cs, ptr %cs.addr, align 8
  store i32 %idx, ptr %idx.addr, align 4
  %this1 = load ptr, ptr %this.addr, align 8
  %0 = load ptr, ptr %cs.addr, align 8
  %m_on_cut_del = getelementptr inbounds %"class.sat::aig_cuts", ptr %this1, i32 0, i32 18
  %1 = load i32, ptr %idx.addr, align 4
  call void @_ZN3sat7cut_set5evictERSt8functionIFvjRKNS_3cutEEEj(ptr noundef nonnull align 8 dereferenceable(32) %0, ptr noundef nonnull align 8 dereferenceable(32) %m_on_cut_del, i32 noundef %1)
  ret void
}

; Function Attrs: mustprogress nounwind uwtable
define linkonce_odr hidden noundef zeroext i1 @_ZN3satneERKNS_7literalES2_(ptr noundef nonnull align 4 dereferenceable(4) %l1, ptr noundef nonnull align 4 dereferenceable(4) %l2) #4 comdat {
entry:
  %l1.addr = alloca ptr, align 8
  %l2.addr = alloca ptr, align 8
  store ptr %l1, ptr %l1.addr, align 8
  store ptr %l2, ptr %l2.addr, align 8
  %0 = load ptr, ptr %l1.addr, align 8
  %m_val = getelementptr inbounds %"class.sat::literal", ptr %0, i32 0, i32 0
  %1 = load i32, ptr %m_val, align 4
  %2 = load ptr, ptr %l2.addr, align 8
  %m_val1 = getelementptr inbounds %"class.sat::literal", ptr %2, i32 0, i32 0
  %3 = load i32, ptr %m_val1, align 4
  %cmp = icmp ne i32 %1, %3
  ret i1 %cmp
}

; Function Attrs: mustprogress nounwind uwtable
define linkonce_odr hidden void @_ZN3sat7literalC2Ejb(ptr noundef nonnull align 4 dereferenceable(4) %this, i32 noundef %v, i1 noundef zeroext %_sign) unnamed_addr #4 comdat align 2 {
entry:
  %this.addr = alloca ptr, align 8
  %v.addr = alloca i32, align 4
  %_sign.addr = alloca i8, align 1
  store ptr %this, ptr %this.addr, align 8
  store i32 %v, ptr %v.addr, align 4
  %frombool = zext i1 %_sign to i8
  store i8 %frombool, ptr %_sign.addr, align 1
  %this1 = load ptr, ptr %this.addr, align 8
  %m_val = getelementptr inbounds %"class.sat::literal", ptr %this1, i32 0, i32 0
  %0 = load i32, ptr %v.addr, align 4
  %shl = shl i32 %0, 1
  %1 = load i8, ptr %_sign.addr, align 1
  %tobool = trunc i8 %1 to i1
  %conv = zext i1 %tobool to i32
  %add = add i32 %shl, %conv
  store i32 %add, ptr %m_val, align 4
  ret void
}

; Function Attrs: mustprogress uwtable
define linkonce_odr hidden i32 @_ZNK3sat8aig_cuts7to_rootixEj(ptr noundef nonnull align 8 dereferenceable(8) %this, i32 noundef %v) #5 comdat align 2 {
entry:
  %retval = alloca %"class.sat::literal", align 4
  %this.addr = alloca ptr, align 8
  %v.addr = alloca i32, align 4
  store ptr %this, ptr %this.addr, align 8
  store i32 %v, ptr %v.addr, align 4
  %this1 = load ptr, ptr %this.addr, align 8
  %0 = load i32, ptr %v.addr, align 4
  %m_to_root = getelementptr inbounds %"class.sat::aig_cuts::to_root", ptr %this1, i32 0, i32 0
  %call = call noundef i32 @_ZNK6vectorIN3sat7literalELb0EjE4sizeEv(ptr noundef nonnull align 8 dereferenceable(8) %m_to_root)
  %cmp = icmp ult i32 %0, %call
  br i1 %cmp, label %cond.true, label %cond.false

cond.true:                                        ; preds = %entry
  %m_to_root2 = getelementptr inbounds %"class.sat::aig_cuts::to_root", ptr %this1, i32 0, i32 0
  %1 = load i32, ptr %v.addr, align 4
  %call3 = call noundef nonnull align 4 dereferenceable(4) ptr @_ZNK6vectorIN3sat7literalELb0EjEixEj(ptr noundef nonnull align 8 dereferenceable(8) %m_to_root2, i32 noundef %1)
  call void @llvm.memcpy.p0.p0.i64(ptr align 4 %retval, ptr align 4 %call3, i64 4, i1 false)
  br label %cond.end

cond.false:                                       ; preds = %entry
  %2 = load i32, ptr %v.addr, align 4
  call void @_ZN3sat7literalC2Ejb(ptr noundef nonnull align 4 dereferenceable(4) %retval, i32 noundef %2, i1 noundef zeroext false)
  br label %cond.end

cond.end:                                         ; preds = %cond.false, %cond.true
  %coerce.dive = getelementptr inbounds %"class.sat::literal", ptr %retval, i32 0, i32 0
  %3 = load i32, ptr %coerce.dive, align 4
  ret i32 %3
}

; Function Attrs: mustprogress nounwind uwtable
define linkonce_odr hidden noundef ptr @_ZNK3sat3cut3endEv(ptr noundef nonnull align 8 dereferenceable(48) %this) #4 comdat align 2 {
entry:
  %this.addr = alloca ptr, align 8
  store ptr %this, ptr %this.addr, align 8
  %this1 = load ptr, ptr %this.addr, align 8
  %m_elems = getelementptr inbounds %"class.sat::cut", ptr %this1, i32 0, i32 2
  %arraydecay = getelementptr inbounds [5 x i32], ptr %m_elems, i64 0, i64 0
  %m_size = getelementptr inbounds %"class.sat::cut", ptr %this1, i32 0, i32 1
  %0 = load i32, ptr %m_size, align 4
  %idx.ext = zext i32 %0 to i64
  %add.ptr = getelementptr inbounds i32, ptr %arraydecay, i64 %idx.ext
  ret ptr %add.ptr
}

; Function Attrs: mustprogress nounwind uwtable
define linkonce_odr hidden noundef ptr @_ZNK3sat3cut5beginEv(ptr noundef nonnull align 8 dereferenceable(48) %this) #4 comdat align 2 {
entry:
  %this.addr = alloca ptr, align 8
  store ptr %this, ptr %this.addr, align 8
  %this1 = load ptr, ptr %this.addr, align 8
  %m_elems = getelementptr inbounds %"class.sat::cut", ptr %this1, i32 0, i32 2
  %arraydecay = getelementptr inbounds [5 x i32], ptr %m_elems, i64 0, i64 0
  ret ptr %arraydecay
}

; Function Attrs: mustprogress nounwind uwtable
define linkonce_odr hidden noundef nonnull align 8 dereferenceable(48) ptr @_ZNK3sat7cut_setixEj(ptr noundef nonnull align 8 dereferenceable(32) %this, i32 noundef %idx) #4 comdat align 2 {
entry:
  %this.addr = alloca ptr, align 8
  %idx.addr = alloca i32, align 4
  store ptr %this, ptr %this.addr, align 8
  store i32 %idx, ptr %idx.addr, align 4
  %this1 = load ptr, ptr %this.addr, align 8
  %m_cuts = getelementptr inbounds %"class.sat::cut_set", ptr %this1, i32 0, i32 4
  %0 = load ptr, ptr %m_cuts, align 8
  %1 = load i32, ptr %idx.addr, align 4
  %idxprom = zext i32 %1 to i64
  %arrayidx = getelementptr inbounds %"class.sat::cut", ptr %0, i64 %idxprom
  ret ptr %arrayidx
}

; Function Attrs: mustprogress nounwind uwtable
define linkonce_odr hidden noundef i32 @_ZNK3sat7cut_set4sizeEv(ptr noundef nonnull align 8 dereferenceable(32) %this) #4 comdat align 2 {
entry:
  %this.addr = alloca ptr, align 8
  store ptr %this, ptr %this.addr, align 8
  %this1 = load ptr, ptr %this.addr, align 8
  %m_size = getelementptr inbounds %"class.sat::cut_set", ptr %this1, i32 0, i32 2
  %0 = load i32, ptr %m_size, align 8
  ret i32 %0
}

; Function Attrs: mustprogress uwtable
define hidden void @_ZN3sat8aig_cuts11flush_rootsERKNS0_7to_rootERNS_7cut_setE(ptr noundef nonnull align 8 dereferenceable(480) %this, ptr noundef nonnull align 8 dereferenceable(8) %to_root, ptr noundef nonnull align 8 dereferenceable(32) %cs) #5 align 2 {
entry:
  %this.addr = alloca ptr, align 8
  %to_root.addr = alloca ptr, align 8
  %cs.addr = alloca ptr, align 8
  %j = alloca i32, align 4
  %__range2 = alloca ptr, align 8
  %__begin2 = alloca ptr, align 8
  %__end2 = alloca ptr, align 8
  %v = alloca i32, align 4
  %ref.tmp = alloca %"class.sat::literal", align 4
  %ref.tmp9 = alloca %"class.sat::literal", align 4
  store ptr %this, ptr %this.addr, align 8
  store ptr %to_root, ptr %to_root.addr, align 8
  store ptr %cs, ptr %cs.addr, align 8
  %this1 = load ptr, ptr %this.addr, align 8
  store i32 0, ptr %j, align 4
  br label %for.cond

for.cond:                                         ; preds = %for.inc11, %entry
  %0 = load i32, ptr %j, align 4
  %1 = load ptr, ptr %cs.addr, align 8
  %call = call noundef i32 @_ZNK3sat7cut_set4sizeEv(ptr noundef nonnull align 8 dereferenceable(32) %1)
  %cmp = icmp ult i32 %0, %call
  br i1 %cmp, label %for.body, label %for.end12

for.body:                                         ; preds = %for.cond
  %2 = load ptr, ptr %cs.addr, align 8
  %3 = load i32, ptr %j, align 4
  %call2 = call noundef nonnull align 8 dereferenceable(48) ptr @_ZNK3sat7cut_setixEj(ptr noundef nonnull align 8 dereferenceable(32) %2, i32 noundef %3)
  store ptr %call2, ptr %__range2, align 8
  %4 = load ptr, ptr %__range2, align 8
  %call3 = call noundef ptr @_ZNK3sat3cut5beginEv(ptr noundef nonnull align 8 dereferenceable(48) %4)
  store ptr %call3, ptr %__begin2, align 8
  %5 = load ptr, ptr %__range2, align 8
  %call4 = call noundef ptr @_ZNK3sat3cut3endEv(ptr noundef nonnull align 8 dereferenceable(48) %5)
  store ptr %call4, ptr %__end2, align 8
  br label %for.cond5

for.cond5:                                        ; preds = %for.inc, %for.body
  %6 = load ptr, ptr %__begin2, align 8
  %7 = load ptr, ptr %__end2, align 8
  %cmp6 = icmp ne ptr %6, %7
  br i1 %cmp6, label %for.body7, label %for.end

for.body7:                                        ; preds = %for.cond5
  %8 = load ptr, ptr %__begin2, align 8
  %9 = load i32, ptr %8, align 4
  store i32 %9, ptr %v, align 4
  %10 = load ptr, ptr %to_root.addr, align 8
  %11 = load i32, ptr %v, align 4
  %call8 = call i32 @_ZNK3sat8aig_cuts7to_rootixEj(ptr noundef nonnull align 8 dereferenceable(8) %10, i32 noundef %11)
  %coerce.dive = getelementptr inbounds %"class.sat::literal", ptr %ref.tmp, i32 0, i32 0
  store i32 %call8, ptr %coerce.dive, align 4
  %12 = load i32, ptr %v, align 4
  call void @_ZN3sat7literalC2Ejb(ptr noundef nonnull align 4 dereferenceable(4) %ref.tmp9, i32 noundef %12, i1 noundef zeroext false)
  %call10 = call noundef zeroext i1 @_ZN3satneERKNS_7literalES2_(ptr noundef nonnull align 4 dereferenceable(4) %ref.tmp, ptr noundef nonnull align 4 dereferenceable(4) %ref.tmp9)
  br i1 %call10, label %if.then, label %if.end

if.then:                                          ; preds = %for.body7
  %13 = load ptr, ptr %cs.addr, align 8
  %14 = load i32, ptr %j, align 4
  %dec = add i32 %14, -1
  store i32 %dec, ptr %j, align 4
  call void @_ZN3sat8aig_cuts5evictERNS_7cut_setEj(ptr noundef nonnull align 8 dereferenceable(480) %this1, ptr noundef nonnull align 8 dereferenceable(32) %13, i32 noundef %14)
  br label %for.end

if.end:                                           ; preds = %for.body7
  br label %for.inc

for.inc:                                          ; preds = %if.end
  %15 = load ptr, ptr %__begin2, align 8
  %incdec.ptr = getelementptr inbounds i32, ptr %15, i32 1
  store ptr %incdec.ptr, ptr %__begin2, align 8
  br label %for.cond5

for.end:                                          ; preds = %if.then, %for.cond5
  br label %for.inc11

for.inc11:                                        ; preds = %for.end
  %16 = load i32, ptr %j, align 4
  %inc = add i32 %16, 1
  store i32 %inc, ptr %j, align 4
  br label %for.cond, !llvm.loop !22

for.end12:                                        ; preds = %for.cond
  ret void
}