; Function Attrs: mustprogress uwtable
define hidden void @_ZN3sat8aig_cuts11flush_rootsERKNS0_7to_rootERNS_7cut_setE(ptr noundef nonnull align 8 dereferenceable(480) %this, ptr nocapture noundef nonnull readonly align 8 dereferenceable(8) %to_root, ptr noundef nonnull align 8 dereferenceable(32) %cs) local_unnamed_addr #3 align 2 {
entry:
  %m_size.i = getelementptr inbounds i8, ptr %cs, i64 16
  %0 = load i32, ptr %m_size.i, align 8
  %cmp15.not = icmp eq i32 %0, 0
  br i1 %cmp15.not, label %for.end12, label %for.body.lr.ph

for.body.lr.ph:                                   ; preds = %entry
  %m_cuts.i = getelementptr inbounds i8, ptr %cs, i64 24
  %m_on_cut_del.i = getelementptr inbounds i8, ptr %this, i64 320
  br label %for.body

for.body:                                         ; preds = %for.body.lr.ph, %for.inc11
  %1 = phi i32 [ %0, %for.body.lr.ph ], [ %9, %for.inc11 ]
  %j.016 = phi i32 [ 0, %for.body.lr.ph ], [ %inc, %for.inc11 ]
  %2 = load ptr, ptr %m_cuts.i, align 8
  %idxprom.i = zext i32 %j.016 to i64
  %arrayidx.i = getelementptr inbounds %"class.sat::cut", ptr %2, i64 %idxprom.i
  %m_elems.i.ptr = getelementptr inbounds i8, ptr %arrayidx.i, i64 8
  %m_size.i11 = getelementptr inbounds i8, ptr %arrayidx.i, i64 4
  %3 = load i32, ptr %m_size.i11, align 4
  %idx.ext.i = zext i32 %3 to i64
  %add.ptr.i.idx = shl nuw nsw i64 %idx.ext.i, 2
  %4 = getelementptr i8, ptr %arrayidx.i, i64 %add.ptr.i.idx
  %add.ptr.i.ptr = getelementptr i8, ptr %4, i64 8
  %cmp6.not13 = icmp eq i32 %3, 0
  br i1 %cmp6.not13, label %for.inc11, label %for.body7.lr.ph

for.body7.lr.ph:                                  ; preds = %for.body
  %5 = load ptr, ptr %to_root, align 8
  %cmp.i.i = icmp eq ptr %5, null
  br i1 %cmp.i.i, label %for.inc11, label %for.body7.lr.ph.split

for.body7.lr.ph.split:                            ; preds = %for.body7.lr.ph
  %arrayidx.i.i = getelementptr inbounds i8, ptr %5, i64 -4
  %6 = load i32, ptr %arrayidx.i.i, align 4
  br label %for.body7

for.cond5:                                        ; preds = %for.body7, %_ZNK3sat8aig_cuts7to_rootixEj.exit
  %incdec.ptr = getelementptr inbounds i8, ptr %__begin2.014, i64 4
  %cmp6.not = icmp eq ptr %incdec.ptr, %add.ptr.i.ptr
  br i1 %cmp6.not, label %for.inc11, label %for.body7

for.body7:                                        ; preds = %for.body7.lr.ph.split, %for.cond5
  %__begin2.014 = phi ptr [ %m_elems.i.ptr, %for.body7.lr.ph.split ], [ %incdec.ptr, %for.cond5 ]
  %7 = load i32, ptr %__begin2.014, align 4
  %cmp.i = icmp ugt i32 %6, %7
  br i1 %cmp.i, label %_ZNK3sat8aig_cuts7to_rootixEj.exit, label %for.cond5

_ZNK3sat8aig_cuts7to_rootixEj.exit:               ; preds = %for.body7
  %idxprom.i.i = zext i32 %7 to i64
  %arrayidx.i3.i = getelementptr inbounds %"class.sat::literal", ptr %5, i64 %idxprom.i.i
  %8 = load i32, ptr %arrayidx.i3.i, align 4
  %.pre19 = shl i32 %7, 1
  %cmp.i12.not = icmp eq i32 %8, %.pre19
  br i1 %cmp.i12.not, label %for.cond5, label %if.then

if.then:                                          ; preds = %_ZNK3sat8aig_cuts7to_rootixEj.exit
  %dec = add i32 %j.016, -1
  tail call void @_ZN3sat7cut_set5evictERSt8functionIFvjRKNS_3cutEEEj(ptr noundef nonnull align 8 dereferenceable(32) %cs, ptr noundef nonnull align 8 dereferenceable(32) %m_on_cut_del.i, i32 noundef %j.016)
  %.pre = load i32, ptr %m_size.i, align 8
  br label %for.inc11

for.inc11:                                        ; preds = %for.cond5, %for.body7.lr.ph, %for.body, %if.then
  %9 = phi i32 [ %.pre, %if.then ], [ %1, %for.body ], [ %1, %for.body7.lr.ph ], [ %1, %for.cond5 ]
  %j.1 = phi i32 [ %dec, %if.then ], [ %j.016, %for.body ], [ %j.016, %for.body7.lr.ph ], [ %j.016, %for.cond5 ]
  %inc = add i32 %j.1, 1
  %cmp = icmp ult i32 %inc, %9
  br i1 %cmp, label %for.body, label %for.end12, !llvm.loop !13

for.end12:                                        ; preds = %for.inc11, %entry
  ret void
}